; Function Attrs: mustprogress uwtable
define noundef nonnull align 8 dereferenceable(8) ptr @_ZlsRSoRKSt6vectorI11colvarvalueSaIS1_EE(ptr noundef nonnull returned align 8 dereferenceable(8) %0, ptr noundef nonnull readonly align 8 captures(none) dereferenceable(24) %1) local_unnamed_addr #1 {
  %3 = getelementptr inbounds nuw i8, ptr %1, i64 8
  %4 = load ptr, ptr %3, align 8, !tbaa !274
  %5 = load ptr, ptr %1, align 8, !tbaa !277
  %.not = icmp eq ptr %4, %5
  br i1 %.not, label %._crit_edge, label %.lr.ph

.lr.ph:                                           ; preds = %2, %_ZlsRSoRK11colvarvalue.exit
  %6 = phi ptr [ %26, %_ZlsRSoRK11colvarvalue.exit ], [ %5, %2 ]
  %.06 = phi i64 [ %24, %_ZlsRSoRK11colvarvalue.exit ], [ 0, %2 ]
  %7 = getelementptr inbounds nuw %class.colvarvalue, ptr %6, i64 %.06
  %8 = load i32, ptr %7, align 8, !tbaa !4
  switch i32 %8, label %22 [
    i32 1, label %9
    i32 2, label %13
    i32 3, label %13
    i32 4, label %13
    i32 5, label %16
    i32 6, label %16
    i32 7, label %19
  ]

9:                                                ; preds = %.lr.ph
  %10 = getelementptr inbounds nuw i8, ptr %7, i64 8
  %11 = load double, ptr %10, align 8, !tbaa !39
  %12 = tail call noundef nonnull align 8 dereferenceable(8) ptr @_ZNSo9_M_insertIdEERSoT_(ptr noundef nonnull align 8 dereferenceable(8) %0, double noundef %11)
  br label %_ZlsRSoRK11colvarvalue.exit

13:                                               ; preds = %.lr.ph, %.lr.ph, %.lr.ph
  %14 = getelementptr inbounds nuw i8, ptr %7, i64 16
  %15 = tail call noundef nonnull align 8 dereferenceable(8) ptr @_ZlsRSoRKN12colvarmodule7rvectorE(ptr noundef nonnull align 8 dereferenceable(8) %0, ptr noundef nonnull align 8 dereferenceable(24) %14)
  br label %_ZlsRSoRK11colvarvalue.exit

16:                                               ; preds = %.lr.ph, %.lr.ph
  %17 = getelementptr inbounds nuw i8, ptr %7, i64 40
  %18 = tail call noundef nonnull align 8 dereferenceable(8) ptr @_ZlsRSoRKN12colvarmodule10quaternionE(ptr noundef nonnull align 8 dereferenceable(8) %0, ptr noundef nonnull align 8 dereferenceable(32) %17)
  br label %_ZlsRSoRK11colvarvalue.exit

19:                                               ; preds = %.lr.ph
  %20 = getelementptr inbounds nuw i8, ptr %7, i64 72
  %21 = tail call noundef nonnull align 8 dereferenceable(8) ptr @_ZlsRSoRKN12colvarmodule8vector1dIdEE(ptr noundef nonnull align 8 dereferenceable(8) %0, ptr noundef nonnull align 8 dereferenceable(24) %20)
  br label %_ZlsRSoRK11colvarvalue.exit

22:                                               ; preds = %.lr.ph
  %23 = tail call noundef nonnull align 8 dereferenceable(8) ptr @_ZSt16__ostream_insertIcSt11char_traitsIcEERSt13basic_ostreamIT_T0_ES6_PKS3_l(ptr noundef nonnull align 8 dereferenceable(8) %0, ptr noundef nonnull @.str.15, i64 noundef 7)
  br label %_ZlsRSoRK11colvarvalue.exit

_ZlsRSoRK11colvarvalue.exit:                      ; preds = %9, %13, %16, %19, %22
  %24 = add nuw i64 %.06, 1
  %25 = load ptr, ptr %3, align 8, !tbaa !274
  %26 = load ptr, ptr %1, align 8, !tbaa !277
  %27 = ptrtoint ptr %25 to i64
  %28 = ptrtoint ptr %26 to i64
  %29 = sub i64 %27, %28
  %30 = sdiv exact i64 %29, 168
  %31 = icmp ult i64 %24, %30
  br i1 %31, label %.lr.ph, label %._crit_edge, !llvm.loop !278

._crit_edge:                                      ; preds = %_ZlsRSoRK11colvarvalue.exit, %2
  ret ptr %0
}